; ModuleID = '55/687.cpp'
source_filename = "55/687.cpp"
target datalayout = "e-m:e-p270:32:32-p271:32:32-p272:64:64-i64:64-f80:128-n8:16:32:64-S128"
target triple = "x86_64-pc-linux-gnu"

%"class.std::ios_base::Init" = type { i8 }
%"class.std::basic_istream" = type { i32 (...)**, i64, %"class.std::basic_ios" }
%"class.std::basic_ios" = type { %"class.std::ios_base", %"class.std::basic_ostream"*, i8, i8, %"class.std::basic_streambuf"*, %"class.std::ctype"*, %"class.std::num_put"*, %"class.std::num_get"* }
%"class.std::ios_base" = type { i32 (...)**, i64, i64, i32, i32, i32, %"struct.std::ios_base::_Callback_list"*, %"struct.std::ios_base::_Words", [8 x %"struct.std::ios_base::_Words"], i32, %"struct.std::ios_base::_Words"*, %"class.std::locale" }
%"struct.std::ios_base::_Callback_list" = type { %"struct.std::ios_base::_Callback_list"*, void (i32, %"class.std::ios_base"*, i32)*, i32, i32 }
%"struct.std::ios_base::_Words" = type { i8*, i64 }
%"class.std::locale" = type { %"class.std::locale::_Impl"* }
%"class.std::locale::_Impl" = type { i32, %"class.std::locale::facet"**, i64, %"class.std::locale::facet"**, i8** }
%"class.std::locale::facet" = type <{ i32 (...)**, i32, [4 x i8] }>
%"class.std::basic_ostream" = type { i32 (...)**, %"class.std::basic_ios" }
%"class.std::basic_streambuf" = type { i32 (...)**, i8*, i8*, i8*, i8*, i8*, i8*, %"class.std::locale" }
%"class.std::ctype" = type <{ %"class.std::locale::facet.base", [4 x i8], %struct.__locale_struct*, i8, [7 x i8], i32*, i32*, i16*, i8, [256 x i8], [256 x i8], i8, [6 x i8] }>
%"class.std::locale::facet.base" = type <{ i32 (...)**, i32 }>
%struct.__locale_struct = type { [13 x %struct.__locale_data*], i16*, i32*, i32*, [13 x i8*] }
%struct.__locale_data = type opaque
%"class.std::num_put" = type { %"class.std::locale::facet.base", [4 x i8] }
%"class.std::num_get" = type { %"class.std::locale::facet.base", [4 x i8] }

@_ZStL8__ioinit = internal global %"class.std::ios_base::Init" zeroinitializer, align 1
@__dso_handle = external hidden global i8
@_ZSt3cin = external dso_local global %"class.std::basic_istream", align 8
@.str = private unnamed_addr constant [3 x i8] c"%s\00", align 1
@_ZSt4cout = external dso_local global %"class.std::basic_ostream", align 8
@.str.1 = private unnamed_addr constant [2 x i8] c"0\00", align 1
@llvm.global_ctors = appending global [1 x { i32, void ()*, i8* }] [{ i32, void ()*, i8* } { i32 65535, void ()* @_GLOBAL__sub_I_687.cpp, i8* null }]

; Function Attrs: noinline uwtable
define internal void @__cxx_global_var_init() #0 section ".text.startup" {
  call void @_ZNSt8ios_base4InitC1Ev(%"class.std::ios_base::Init"* @_ZStL8__ioinit)
  %1 = call i32 @__cxa_atexit(void (i8*)* bitcast (void (%"class.std::ios_base::Init"*)* @_ZNSt8ios_base4InitD1Ev to void (i8*)*), i8* getelementptr inbounds (%"class.std::ios_base::Init", %"class.std::ios_base::Init"* @_ZStL8__ioinit, i32 0, i32 0), i8* @__dso_handle) #3
  ret void
}

declare dso_local void @_ZNSt8ios_base4InitC1Ev(%"class.std::ios_base::Init"*) unnamed_addr #1

; Function Attrs: nounwind
declare dso_local void @_ZNSt8ios_base4InitD1Ev(%"class.std::ios_base::Init"*) unnamed_addr #2

; Function Attrs: nounwind
declare dso_local i32 @__cxa_atexit(void (i8*)*, i8*, i8*) #3

; Function Attrs: noinline norecurse uwtable
define dso_local i32 @main() #4 {
  %1 = alloca i32, align 4
  %2 = alloca i32, align 4
  %3 = alloca i32, align 4
  %4 = alloca i32, align 4
  %5 = alloca i32, align 4
  %6 = alloca i32, align 4
  %7 = alloca [100 x i32], align 16
  %8 = alloca [100 x i8], align 16
  %9 = alloca [100 x i8], align 16
  store i32 0, i32* %1, align 4
  store i32 0, i32* %4, align 4
  %10 = call dereferenceable(280) %"class.std::basic_istream"* @_ZNSirsERi(%"class.std::basic_istream"* @_ZSt3cin, i32* dereferenceable(4) %2)
  %11 = getelementptr inbounds [100 x i8], [100 x i8]* %8, i64 0, i64 0
  %12 = call i32 (i8*, ...) @__isoc99_scanf(i8* getelementptr inbounds ([3 x i8], [3 x i8]* @.str, i64 0, i64 0), i8* %11)
  %13 = call dereferenceable(280) %"class.std::basic_istream"* @_ZNSirsERi(%"class.std::basic_istream"* @_ZSt3cin, i32* dereferenceable(4) %3)
  %14 = getelementptr inbounds [100 x i8], [100 x i8]* %8, i64 0, i64 0
  %15 = call i64 @strlen(i8* %14) #6
  %16 = trunc i64 %15 to i32
  store i32 %16, i32* %6, align 4
  store i32 0, i32* %5, align 4
  br label %17

17:                                               ; preds = %77, %0
  %18 = load i32, i32* %5, align 4
  %19 = load i32, i32* %6, align 4
  %20 = icmp slt i32 %18, %19
  br i1 %20, label %21, label %80

21:                                               ; preds = %17
  %22 = load i32, i32* %5, align 4
  %23 = sext i32 %22 to i64
  %24 = getelementptr inbounds [100 x i8], [100 x i8]* %8, i64 0, i64 %23
  %25 = load i8, i8* %24, align 1
  %26 = sext i8 %25 to i32
  %27 = icmp sge i32 %26, 97
  br i1 %27, label %28, label %39

28:                                               ; preds = %21
  %29 = load i32, i32* %4, align 4
  %30 = load i32, i32* %2, align 4
  %31 = mul nsw i32 %29, %30
  %32 = load i32, i32* %5, align 4
  %33 = sext i32 %32 to i64
  %34 = getelementptr inbounds [100 x i8], [100 x i8]* %8, i64 0, i64 %33
  %35 = load i8, i8* %34, align 1
  %36 = sext i8 %35 to i32
  %37 = sub nsw i32 %36, 87
  %38 = add nsw i32 %31, %37
  store i32 %38, i32* %4, align 4
  br label %76

39:                                               ; preds = %21
  %40 = load i32, i32* %5, align 4
  %41 = sext i32 %40 to i64
  %42 = getelementptr inbounds [100 x i8], [100 x i8]* %8, i64 0, i64 %41
  %43 = load i8, i8* %42, align 1
  %44 = sext i8 %43 to i32
  %45 = icmp sge i32 %44, 65
  br i1 %45, label %46, label %64

46:                                               ; preds = %39
  %47 = load i32, i32* %5, align 4
  %48 = sext i32 %47 to i64
  %49 = getelementptr inbounds [100 x i8], [100 x i8]* %8, i64 0, i64 %48
  %50 = load i8, i8* %49, align 1
  %51 = sext i8 %50 to i32
  %52 = icmp sle i32 %51, 90
  br i1 %52, label %53, label %64

53:                                               ; preds = %46
  %54 = load i32, i32* %4, align 4
  %55 = load i32, i32* %2, align 4
  %56 = mul nsw i32 %54, %55
  %57 = load i32, i32* %5, align 4
  %58 = sext i32 %57 to i64
  %59 = getelementptr inbounds [100 x i8], [100 x i8]* %8, i64 0, i64 %58
  %60 = load i8, i8* %59, align 1
  %61 = sext i8 %60 to i32
  %62 = sub nsw i32 %61, 55
  %63 = add nsw i32 %56, %62
  store i32 %63, i32* %4, align 4
  br label %75

64:                                               ; preds = %46, %39
  %65 = load i32, i32* %4, align 4
  %66 = load i32, i32* %2, align 4
  %67 = mul nsw i32 %65, %66
  %68 = load i32, i32* %5, align 4
  %69 = sext i32 %68 to i64
  %70 = getelementptr inbounds [100 x i8], [100 x i8]* %8, i64 0, i64 %69
  %71 = load i8, i8* %70, align 1
  %72 = sext i8 %71 to i32
  %73 = sub nsw i32 %72, 48
  %74 = add nsw i32 %67, %73
  store i32 %74, i32* %4, align 4
  br label %75

75:                                               ; preds = %64, %53
  br label %76

76:                                               ; preds = %75, %28
  br label %77

77:                                               ; preds = %76
  %78 = load i32, i32* %5, align 4
  %79 = add nsw i32 %78, 1
  store i32 %79, i32* %5, align 4
  br label %17

80:                                               ; preds = %17
  %81 = load i32, i32* %4, align 4
  %82 = icmp eq i32 %81, 0
  br i1 %82, label %83, label %85

83:                                               ; preds = %80
  %84 = call dereferenceable(272) %"class.std::basic_ostream"* @_ZStlsISt11char_traitsIcEERSt13basic_ostreamIcT_ES5_PKc(%"class.std::basic_ostream"* dereferenceable(272) @_ZSt4cout, i8* getelementptr inbounds ([2 x i8], [2 x i8]* @.str.1, i64 0, i64 0))
  br label %144

85:                                               ; preds = %80
  store i32 0, i32* %5, align 4
  br label %86

86:                                               ; preds = %125, %85
  %87 = load i32, i32* %4, align 4
  %88 = icmp ne i32 %87, 0
  br i1 %88, label %89, label %128

89:                                               ; preds = %86
  %90 = load i32, i32* %4, align 4
  %91 = load i32, i32* %3, align 4
  %92 = srem i32 %90, %91
  %93 = load i32, i32* %5, align 4
  %94 = sext i32 %93 to i64
  %95 = getelementptr inbounds [100 x i32], [100 x i32]* %7, i64 0, i64 %94
  store i32 %92, i32* %95, align 4
  %96 = load i32, i32* %5, align 4
  %97 = sext i32 %96 to i64
  %98 = getelementptr inbounds [100 x i32], [100 x i32]* %7, i64 0, i64 %97
  %99 = load i32, i32* %98, align 4
  %100 = icmp slt i32 %99, 10
  br i1 %100, label %101, label %111

101:                                              ; preds = %89
  %102 = load i32, i32* %5, align 4
  %103 = sext i32 %102 to i64
  %104 = getelementptr inbounds [100 x i32], [100 x i32]* %7, i64 0, i64 %103
  %105 = load i32, i32* %104, align 4
  %106 = add nsw i32 %105, 48
  %107 = trunc i32 %106 to i8
  %108 = load i32, i32* %5, align 4
  %109 = sext i32 %108 to i64
  %110 = getelementptr inbounds [100 x i8], [100 x i8]* %9, i64 0, i64 %109
  store i8 %107, i8* %110, align 1
  br label %121

111:                                              ; preds = %89
  %112 = load i32, i32* %5, align 4
  %113 = sext i32 %112 to i64
  %114 = getelementptr inbounds [100 x i32], [100 x i32]* %7, i64 0, i64 %113
  %115 = load i32, i32* %114, align 4
  %116 = add nsw i32 %115, 55
  %117 = trunc i32 %116 to i8
  %118 = load i32, i32* %5, align 4
  %119 = sext i32 %118 to i64
  %120 = getelementptr inbounds [100 x i8], [100 x i8]* %9, i64 0, i64 %119
  store i8 %117, i8* %120, align 1
  br label %121

121:                                              ; preds = %111, %101
  %122 = load i32, i32* %4, align 4
  %123 = load i32, i32* %3, align 4
  %124 = sdiv i32 %122, %123
  store i32 %124, i32* %4, align 4
  br label %125

125:                                              ; preds = %121
  %126 = load i32, i32* %5, align 4
  %127 = add nsw i32 %126, 1
  store i32 %127, i32* %5, align 4
  br label %86

128:                                              ; preds = %86
  %129 = load i32, i32* %5, align 4
  %130 = add nsw i32 %129, -1
  store i32 %130, i32* %5, align 4
  br label %131

131:                                              ; preds = %140, %128
  %132 = load i32, i32* %5, align 4
  %133 = icmp sge i32 %132, 0
  br i1 %133, label %134, label %143

134:                                              ; preds = %131
  %135 = load i32, i32* %5, align 4
  %136 = sext i32 %135 to i64
  %137 = getelementptr inbounds [100 x i8], [100 x i8]* %9, i64 0, i64 %136
  %138 = load i8, i8* %137, align 1
  %139 = call dereferenceable(272) %"class.std::basic_ostream"* @_ZStlsISt11char_traitsIcEERSt13basic_ostreamIcT_ES5_c(%"class.std::basic_ostream"* dereferenceable(272) @_ZSt4cout, i8 signext %138)
  br label %140

140:                                              ; preds = %134
  %141 = load i32, i32* %5, align 4
  %142 = add nsw i32 %141, -1
  store i32 %142, i32* %5, align 4
  br label %131

143:                                              ; preds = %131
  br label %144

144:                                              ; preds = %143, %83
  ret i32 0
}

declare dso_local dereferenceable(280) %"class.std::basic_istream"* @_ZNSirsERi(%"class.std::basic_istream"*, i32* dereferenceable(4)) #1

declare dso_local i32 @__isoc99_scanf(i8*, ...) #1

; Function Attrs: nounwind readonly
declare dso_local i64 @strlen(i8*) #5

declare dso_local dereferenceable(272) %"class.std::basic_ostream"* @_ZStlsISt11char_traitsIcEERSt13basic_ostreamIcT_ES5_PKc(%"class.std::basic_ostream"* dereferenceable(272), i8*) #1

declare dso_local dereferenceable(272) %"class.std::basic_ostream"* @_ZStlsISt11char_traitsIcEERSt13basic_ostreamIcT_ES5_c(%"class.std::basic_ostream"* dereferenceable(272), i8 signext) #1

; Function Attrs: noinline uwtable
define internal void @_GLOBAL__sub_I_687.cpp() #0 section ".text.startup" {
  call void @__cxx_global_var_init()
  ret void
}


!llvm.module.flags = !{!0}
!llvm.ident = !{!1}

!0 = !{i32 1, !"wchar_size", i32 4}
!1 = !{!"clang version 10.0.0-4ubuntu1 "}
