; ModuleID = 'source-C-CXX/54/687.cpp'
source_filename = "source-C-CXX/54/687.cpp"
target datalayout = "e-m:e-p270:32:32-p271:32:32-p272:64:64-i64:64-f80:128-n8:16:32:64-S128"
target triple = "x86_64-pc-linux-gnu"

%"class.std::ios_base::Init" = type { i8 }
%"class.std::basic_istream" = type { i32 (...)**, i64, %"class.std::basic_ios" }
%"class.std::basic_ios" = type { %"class.std::ios_base", %"class.std::basic_ostream"*, i8, i8, %"class.std::basic_streambuf"*, %"class.std::ctype"*, %"class.std::num_put"*, %"class.std::num_get"* }
%"class.std::ios_base" = type { i32 (...)**, i64, i64, i32, i32, i32, %"struct.std::ios_base::_Callback_list"*, %"struct.std::ios_base::_Words", [8 x %"struct.std::ios_base::_Words"], i32, %"struct.std::ios_base::_Words"*, %"class.std::locale" }
%"struct.std::ios_base::_Callback_list" = type { %"struct.std::ios_base::_Callback_list"*, void (i32, %"class.std::ios_base"*, i32)*, i32, i32 }
%"struct.std::ios_base::_Words" = type { i8*, i64 }
%"class.std::locale" = type { %"class.std::locale::_Impl"* }
%"class.std::locale::_Impl" = type { i32, %"class.std::locale::facet"**, i64, %"class.std::locale::facet"**, i8** }
%"class.std::locale::facet" = type <{ i32 (...)**, i32, [4 x i8] }>
%"class.std::basic_ostream" = type { i32 (...)**, %"class.std::basic_ios" }
%"class.std::basic_streambuf" = type { i32 (...)**, i8*, i8*, i8*, i8*, i8*, i8*, %"class.std::locale" }
%"class.std::ctype" = type <{ %"class.std::locale::facet.base", [4 x i8], %struct.__locale_struct*, i8, [7 x i8], i32*, i32*, i16*, i8, [256 x i8], [256 x i8], i8, [6 x i8] }>
%"class.std::locale::facet.base" = type <{ i32 (...)**, i32 }>
%struct.__locale_struct = type { [13 x %struct.__locale_data*], i16*, i32*, i32*, [13 x i8*] }
%struct.__locale_data = type opaque
%"class.std::num_put" = type { %"class.std::locale::facet.base", [4 x i8] }
%"class.std::num_get" = type { %"class.std::locale::facet.base", [4 x i8] }

@_ZStL8__ioinit = internal global %"class.std::ios_base::Init" zeroinitializer, align 1
@__dso_handle = external hidden global i8
@_ZSt3cin = external global %"class.std::basic_istream", align 8
@.str = private unnamed_addr constant [3 x i8] c"%s\00", align 1
@_ZSt4cout = external global %"class.std::basic_ostream", align 8
@.str.1 = private unnamed_addr constant [2 x i8] c"0\00", align 1
@llvm.global_ctors = appending global [1 x { i32, void ()*, i8* }] [{ i32, void ()*, i8* } { i32 65535, void ()* @_GLOBAL__sub_I_687.cpp, i8* null }]

declare void @_ZNSt8ios_base4InitC1Ev(%"class.std::ios_base::Init"* nonnull align 1 dereferenceable(1)) unnamed_addr #0

; Function Attrs: nounwind
declare void @_ZNSt8ios_base4InitD1Ev(%"class.std::ios_base::Init"* nonnull align 1 dereferenceable(1)) unnamed_addr #1

; Function Attrs: nofree nounwind
declare i32 @__cxa_atexit(void (i8*)*, i8*, i8*) local_unnamed_addr #2

; Function Attrs: mustprogress norecurse sspstrong uwtable
define dso_local i32 @main() local_unnamed_addr #3 {
  %1 = alloca i8, align 1
  %2 = alloca i32, align 4
  %3 = alloca i32, align 4
  %4 = alloca [100 x i8], align 16
  %5 = alloca [100 x i8], align 16
  %6 = bitcast i32* %2 to i8*
  call void @llvm.lifetime.start.p0i8(i64 4, i8* nonnull %6) #8
  %7 = bitcast i32* %3 to i8*
  call void @llvm.lifetime.start.p0i8(i64 4, i8* nonnull %7) #8
  %8 = getelementptr inbounds [100 x i8], [100 x i8]* %4, i64 0, i64 0
  call void @llvm.lifetime.start.p0i8(i64 100, i8* nonnull %8) #8
  %9 = getelementptr inbounds [100 x i8], [100 x i8]* %5, i64 0, i64 0
  call void @llvm.lifetime.start.p0i8(i64 100, i8* nonnull %9) #8
  %10 = call nonnull align 8 dereferenceable(16) %"class.std::basic_istream"* @_ZNSirsERi(%"class.std::basic_istream"* nonnull align 8 dereferenceable(16) @_ZSt3cin, i32* nonnull align 4 dereferenceable(4) %2)
  %11 = call i32 (i8*, ...) @__isoc99_scanf(i8* getelementptr inbounds ([3 x i8], [3 x i8]* @.str, i64 0, i64 0), i8* nonnull %8)
  %12 = call nonnull align 8 dereferenceable(16) %"class.std::basic_istream"* @_ZNSirsERi(%"class.std::basic_istream"* nonnull align 8 dereferenceable(16) @_ZSt3cin, i32* nonnull align 4 dereferenceable(4) %3)
  %13 = call i64 @strlen(i8* noundef nonnull %8) #9
  %14 = trunc i64 %13 to i32
  %15 = load i32, i32* %2, align 4
  %16 = icmp sgt i32 %14, 0
  br i1 %16, label %17, label %75

17:                                               ; preds = %0
  %18 = and i64 %13, 4294967295
  %19 = and i64 %13, 1
  %20 = icmp eq i64 %18, 1
  br i1 %20, label %53, label %21

21:                                               ; preds = %17
  %22 = sub nsw i64 %18, %19
  br label %23

23:                                               ; preds = %23, %21
  %24 = phi i64 [ 0, %21 ], [ %50, %23 ]
  %25 = phi i32 [ 0, %21 ], [ %49, %23 ]
  %26 = phi i64 [ %22, %21 ], [ %51, %23 ]
  %27 = getelementptr inbounds [100 x i8], [100 x i8]* %4, i64 0, i64 %24
  %28 = load i8, i8* %27, align 2, !tbaa !5
  %29 = sext i8 %28 to i32
  %30 = icmp sgt i8 %28, 96
  %31 = add i8 %28, -65
  %32 = icmp ult i8 %31, 26
  %33 = select i1 %32, i32 -55, i32 -48
  %34 = select i1 %30, i32 -87, i32 %33
  %35 = mul nsw i32 %15, %25
  %36 = add nsw i32 %34, %29
  %37 = add nsw i32 %36, %35
  %38 = or i64 %24, 1
  %39 = getelementptr inbounds [100 x i8], [100 x i8]* %4, i64 0, i64 %38
  %40 = load i8, i8* %39, align 1, !tbaa !5
  %41 = sext i8 %40 to i32
  %42 = icmp sgt i8 %40, 96
  %43 = add i8 %40, -65
  %44 = icmp ult i8 %43, 26
  %45 = select i1 %44, i32 -55, i32 -48
  %46 = select i1 %42, i32 -87, i32 %45
  %47 = mul nsw i32 %15, %37
  %48 = add nsw i32 %46, %41
  %49 = add nsw i32 %48, %47
  %50 = add nuw nsw i64 %24, 2
  %51 = add i64 %26, -2
  %52 = icmp eq i64 %51, 0
  br i1 %52, label %53, label %23, !llvm.loop !8

53:                                               ; preds = %23, %17
  %54 = phi i32 [ undef, %17 ], [ %49, %23 ]
  %55 = phi i64 [ 0, %17 ], [ %50, %23 ]
  %56 = phi i32 [ 0, %17 ], [ %49, %23 ]
  %57 = icmp eq i64 %19, 0
  br i1 %57, label %70, label %58

58:                                               ; preds = %53
  %59 = getelementptr inbounds [100 x i8], [100 x i8]* %4, i64 0, i64 %55
  %60 = load i8, i8* %59, align 1, !tbaa !5
  %61 = icmp sgt i8 %60, 96
  %62 = add i8 %60, -65
  %63 = icmp ult i8 %62, 26
  %64 = select i1 %63, i32 -55, i32 -48
  %65 = select i1 %61, i32 -87, i32 %64
  %66 = sext i8 %60 to i32
  %67 = add nsw i32 %65, %66
  %68 = mul nsw i32 %15, %56
  %69 = add nsw i32 %67, %68
  br label %70

70:                                               ; preds = %53, %58
  %71 = phi i32 [ %54, %53 ], [ %69, %58 ]
  %72 = icmp eq i32 %71, 0
  br i1 %72, label %75, label %73

73:                                               ; preds = %70
  %74 = load i32, i32* %3, align 4, !tbaa !10
  br label %79

75:                                               ; preds = %0, %70
  %76 = call nonnull align 8 dereferenceable(8) %"class.std::basic_ostream"* @_ZSt16__ostream_insertIcSt11char_traitsIcEERSt13basic_ostreamIT_T0_ES6_PKS3_l(%"class.std::basic_ostream"* nonnull align 8 dereferenceable(8) @_ZSt4cout, i8* nonnull getelementptr inbounds ([2 x i8], [2 x i8]* @.str.1, i64 0, i64 0), i64 1)
  br label %99

77:                                               ; preds = %79
  %78 = and i64 %80, 4294967295
  br label %91

79:                                               ; preds = %73, %79
  %80 = phi i64 [ 0, %73 ], [ %89, %79 ]
  %81 = phi i32 [ %71, %73 ], [ %88, %79 ]
  %82 = srem i32 %81, %74
  %83 = icmp slt i32 %82, 10
  %84 = trunc i32 %82 to i8
  %85 = select i1 %83, i8 48, i8 55
  %86 = add i8 %85, %84
  %87 = getelementptr inbounds [100 x i8], [100 x i8]* %5, i64 0, i64 %80
  store i8 %86, i8* %87, align 1
  %88 = sdiv i32 %81, %74
  %89 = add nuw i64 %80, 1
  %90 = icmp eq i32 %88, 0
  br i1 %90, label %77, label %79, !llvm.loop !12

91:                                               ; preds = %77, %91
  %92 = phi i64 [ %78, %77 ], [ %98, %91 ]
  %93 = getelementptr inbounds [100 x i8], [100 x i8]* %5, i64 0, i64 %92
  %94 = load i8, i8* %93, align 1, !tbaa !5
  call void @llvm.lifetime.start.p0i8(i64 1, i8* nonnull %1)
  store i8 %94, i8* %1, align 1, !tbaa !5
  %95 = call nonnull align 8 dereferenceable(8) %"class.std::basic_ostream"* @_ZSt16__ostream_insertIcSt11char_traitsIcEERSt13basic_ostreamIT_T0_ES6_PKS3_l(%"class.std::basic_ostream"* nonnull align 8 dereferenceable(8) @_ZSt4cout, i8* nonnull %1, i64 1)
  call void @llvm.lifetime.end.p0i8(i64 1, i8* nonnull %1)
  %96 = trunc i64 %92 to i32
  %97 = icmp sgt i32 %96, 0
  %98 = add nsw i64 %92, -1
  br i1 %97, label %91, label %99, !llvm.loop !13

99:                                               ; preds = %91, %75
  call void @llvm.lifetime.end.p0i8(i64 100, i8* nonnull %9) #8
  call void @llvm.lifetime.end.p0i8(i64 100, i8* nonnull %8) #8
  call void @llvm.lifetime.end.p0i8(i64 4, i8* nonnull %7) #8
  call void @llvm.lifetime.end.p0i8(i64 4, i8* nonnull %6) #8
  ret i32 0
}

; Function Attrs: argmemonly mustprogress nofree nosync nounwind willreturn
declare void @llvm.lifetime.start.p0i8(i64 immarg, i8* nocapture) #4

declare nonnull align 8 dereferenceable(16) %"class.std::basic_istream"* @_ZNSirsERi(%"class.std::basic_istream"* nonnull align 8 dereferenceable(16), i32* nonnull align 4 dereferenceable(4)) local_unnamed_addr #0

; Function Attrs: nofree nounwind
declare noundef i32 @__isoc99_scanf(i8* nocapture noundef readonly, ...) local_unnamed_addr #5

; Function Attrs: argmemonly mustprogress nofree nounwind readonly willreturn
declare i64 @strlen(i8* nocapture) local_unnamed_addr #6

; Function Attrs: argmemonly mustprogress nofree nosync nounwind willreturn
declare void @llvm.lifetime.end.p0i8(i64 immarg, i8* nocapture) #4

declare nonnull align 8 dereferenceable(8) %"class.std::basic_ostream"* @_ZSt16__ostream_insertIcSt11char_traitsIcEERSt13basic_ostreamIT_T0_ES6_PKS3_l(%"class.std::basic_ostream"* nonnull align 8 dereferenceable(8), i8*, i64) local_unnamed_addr #0

; Function Attrs: sspstrong uwtable
define internal void @_GLOBAL__sub_I_687.cpp() #7 section ".text.startup" {
  tail call void @_ZNSt8ios_base4InitC1Ev(%"class.std::ios_base::Init"* nonnull align 1 dereferenceable(1) @_ZStL8__ioinit)
  %1 = tail call i32 @__cxa_atexit(void (i8*)* bitcast (void (%"class.std::ios_base::Init"*)* @_ZNSt8ios_base4InitD1Ev to void (i8*)*), i8* getelementptr inbounds (%"class.std::ios_base::Init", %"class.std::ios_base::Init"* @_ZStL8__ioinit, i64 0, i32 0), i8* nonnull @__dso_handle) #8
  ret void
}


!llvm.module.flags = !{!0, !1, !2, !3}
!llvm.ident = !{!4}

!0 = !{i32 1, !"wchar_size", i32 4}
!1 = !{i32 7, !"PIC Level", i32 2}
!2 = !{i32 7, !"PIE Level", i32 2}
!3 = !{i32 7, !"uwtable", i32 1}
!4 = !{!"clang version 13.0.0"}
!5 = !{!6, !6, i64 0}
!6 = !{!"omnipotent char", !7, i64 0}
!7 = !{!"Simple C++ TBAA"}
!8 = distinct !{!8, !9}
!9 = !{!"llvm.loop.mustprogress"}
!10 = !{!11, !11, i64 0}
!11 = !{!"int", !6, i64 0}
!12 = distinct !{!12, !9}
!13 = distinct !{!13, !9}
